target datalayout = "e-m:e-p270:32:32-p271:32:32-p272:64:64-i64:64-i128:128-f80:128-n8:16:32:64-S128"
target triple = "x86_64-pc-linux-gnu"

%"class.std::basic_ios" = type { %"class.std::ios_base", ptr, i8, i8, ptr, ptr, ptr, ptr }
%"class.std::ios_base" = type { ptr, i64, i64, i32, i32, i32, ptr, %"struct.std::ios_base::_Words", [8 x %"struct.std::ios_base::_Words"], i32, ptr, %"class.std::locale" }
%"struct.std::ios_base::_Words" = type { ptr, i64 }
%"class.std::locale" = type { ptr }
%"class.std::__cxx11::basic_string" = type { %"struct.std::__cxx11::basic_string<char>::_Alloc_hider", i64, %union.anon }
%"struct.std::__cxx11::basic_string<char>::_Alloc_hider" = type { ptr }
%union.anon = type { i64, [8 x i8] }
%"class.std::allocator.2" = type { i8 }
%"class.std::basic_istream.base" = type { ptr, i64 }
%"class.std::basic_streambuf" = type { ptr, ptr, ptr, ptr, ptr, ptr, ptr, %"class.std::locale" }
%"class.Stockfish::Position" = type <{ [64 x i32], [8 x i64], [2 x i64], [16 x i32], [64 x i32], [16 x i32], [16 x i64], ptr, i32, i32, i8, [7 x i8] }>
%"struct.Stockfish::StateInfo" = type { i64, i64, [2 x i32], i32, i32, i32, i32, i64, i64, ptr, [2 x i64], [2 x i64], [8 x i64], i32, i32, [24 x i8], %"struct.Stockfish::Eval::NNUE::Accumulator", %"struct.Stockfish::Eval::NNUE::Accumulator.16", %"struct.Stockfish::DirtyPiece", [24 x i8] }
%"struct.Stockfish::Eval::NNUE::Accumulator" = type { [2 x [2560 x i16]], [2 x [8 x i32]], [2 x i8], [2 x i8], [60 x i8] }
%"struct.Stockfish::Eval::NNUE::Accumulator.16" = type { [2 x [128 x i16]], [2 x [8 x i32]], [2 x i8], [2 x i8], [60 x i8] }
%"struct.Stockfish::DirtyPiece" = type { i32, [3 x i32], [3 x i32], [3 x i32] }
%"class.std::__cxx11::basic_stringstream" = type { %"class.std::basic_iostream.base", %"class.std::__cxx11::basic_stringbuf", %"class.std::basic_ios" }
%"class.std::basic_iostream.base" = type { %"class.std::basic_istream.base", %"class.std::basic_ostream.base" }
%"class.std::basic_ostream.base" = type { ptr }
%"class.std::__cxx11::basic_stringbuf" = type { %"class.std::basic_streambuf", i32, %"class.std::__cxx11::basic_string" }
%"struct.std::_Setprecision" = type { i32 }
%"struct.std::_Setw" = type { i32 }

@.str.10 = private unnamed_addr constant [34 x i8] c"Final evaluation: none (in check)\00", align 1
@.str.11 = private unnamed_addr constant [24 x i8] c"NNUE evaluation        \00", align 1
@.str.12 = private unnamed_addr constant [15 x i8] c" (white side)\0A\00", align 1
@.str.13 = private unnamed_addr constant [24 x i8] c"Final evaluation       \00", align 1
@.str.14 = private unnamed_addr constant [14 x i8] c" (white side)\00", align 1
@.str.15 = private unnamed_addr constant [25 x i8] c" [with scaled NNUE, ...]\00", align 1
@.str.16 = private unnamed_addr constant [2 x i8] c"\0A\00", align 1
@.str.17 = private unnamed_addr constant [50 x i8] c"basic_string: construction from null is not valid\00", align 1

; Function Attrs: mustprogress nounwind uwtable
define linkonce_odr dso_local noundef i64 @_ZNSt11char_traitsIcE6lengthEPKc(ptr noundef %0) #4 comdat align 2 {
  %2 = alloca ptr, align 8
  store ptr %0, ptr %2, align 8
  %3 = load ptr, ptr %2, align 8
  %4 = call i64 @strlen(ptr noundef %3) #3
  ret i64 %4
}

; Function Attrs: mustprogress nounwind uwtable
define linkonce_odr dso_local noundef i32 @_ZNK9Stockfish8Position12side_to_moveEv(ptr noundef nonnull align 8 dereferenceable(865) %0) #4 comdat align 2 {
  %2 = alloca ptr, align 8
  store ptr %0, ptr %2, align 8
  %3 = load ptr, ptr %2, align 8
  %4 = getelementptr inbounds %"class.Stockfish::Position", ptr %3, i32 0, i32 9
  %5 = load i32, ptr %4, align 4
  ret i32 %5
}

; Function Attrs: mustprogress nounwind uwtable
define linkonce_odr dso_local i32 @_ZSt4setwi(i32 noundef %0) #4 comdat {
  %2 = alloca %"struct.std::_Setw", align 4
  %3 = alloca i32, align 4
  store i32 %0, ptr %3, align 4
  %4 = getelementptr inbounds %"struct.std::_Setw", ptr %2, i32 0, i32 0
  %5 = load i32, ptr %3, align 4
  store i32 %5, ptr %4, align 4
  %6 = getelementptr inbounds %"struct.std::_Setw", ptr %2, i32 0, i32 0
  %7 = load i32, ptr %6, align 4
  ret i32 %7
}

; Function Attrs: mustprogress nounwind uwtable
define linkonce_odr dso_local i32 @_ZSt12setprecisioni(i32 noundef %0) #4 comdat {
  %2 = alloca %"struct.std::_Setprecision", align 4
  %3 = alloca i32, align 4
  store i32 %0, ptr %3, align 4
  %4 = getelementptr inbounds %"struct.std::_Setprecision", ptr %2, i32 0, i32 0
  %5 = load i32, ptr %3, align 4
  store i32 %5, ptr %4, align 4
  %6 = getelementptr inbounds %"struct.std::_Setprecision", ptr %2, i32 0, i32 0
  %7 = load i32, ptr %6, align 4
  ret i32 %7
}

; Function Attrs: mustprogress nounwind uwtable
define linkonce_odr dso_local void @_ZNSt7__cxx1112basic_stringIcSt11char_traitsIcESaIcEEC2IS3_EEPKcRKS3_(ptr noundef nonnull align 8 dereferenceable(32) %0, ptr noundef %1, ptr noundef nonnull align 1 dereferenceable(1) %2) unnamed_addr #4 comdat align 2 {
  %4 = alloca ptr, align 8
  %5 = alloca ptr, align 8
  %6 = alloca ptr, align 8
  %7 = alloca ptr, align 8
  store ptr %0, ptr %4, align 8
  store ptr %1, ptr %5, align 8
  store ptr %2, ptr %6, align 8
  %8 = load ptr, ptr %4, align 8
  %9 = getelementptr inbounds %"class.std::__cxx11::basic_string", ptr %8, i32 0, i32 0
  %10 = call noundef ptr @_ZNSt7__cxx1112basic_stringIcSt11char_traitsIcESaIcEE13_M_local_dataEv(ptr noundef nonnull align 8 dereferenceable(32) %8)
  %11 = load ptr, ptr %6, align 8
  call void @_ZNSt7__cxx1112basic_stringIcSt11char_traitsIcESaIcEE12_Alloc_hiderC1EPcRKS3_(ptr noundef nonnull align 8 dereferenceable(8) %9, ptr noundef %10, ptr noundef nonnull align 1 dereferenceable(1) %11)
  %12 = load ptr, ptr %5, align 8
  %13 = icmp eq ptr %12, null
  br i1 %13, label %14, label %15

14:                                               ; preds = %3
  call void @_ZSt19__throw_logic_errorPKc(ptr noundef @.str.17) #12
  unreachable

15:                                               ; preds = %3
  %16 = load ptr, ptr %5, align 8
  %17 = load ptr, ptr %5, align 8
  %18 = call noundef i64 @_ZNSt11char_traitsIcE6lengthEPKc(ptr noundef %17)
  %19 = getelementptr inbounds i8, ptr %16, i64 %18
  store ptr %19, ptr %7, align 8
  %20 = load ptr, ptr %5, align 8
  %21 = load ptr, ptr %7, align 8
  call void @_ZNSt7__cxx1112basic_stringIcSt11char_traitsIcESaIcEE12_M_constructIPKcEEvT_S8_St20forward_iterator_tag(ptr noundef nonnull align 8 dereferenceable(32) %8, ptr noundef %20, ptr noundef %21)
  ret void
}

; Function Attrs: mustprogress nounwind uwtable
define linkonce_odr dso_local noundef i64 @_ZNK9Stockfish8Position8checkersEv(ptr noundef nonnull align 8 dereferenceable(865) %0) #4 comdat align 2 {
  %2 = alloca ptr, align 8
  store ptr %0, ptr %2, align 8
  %3 = load ptr, ptr %2, align 8
  %4 = getelementptr inbounds %"class.Stockfish::Position", ptr %3, i32 0, i32 7
  %5 = load ptr, ptr %4, align 8
  %6 = getelementptr inbounds %"struct.Stockfish::StateInfo", ptr %5, i32 0, i32 8
  %7 = load i64, ptr %6, align 16
  ret i64 %7
}

; Function Attrs: mustprogress nounwind uwtable
define dso_local void @_ZN9Stockfish4Eval5traceB5cxx11ERNS_8PositionE(ptr dead_on_unwind noalias writable sret(%"class.std::__cxx11::basic_string") align 8 %0, ptr noundef nonnull align 8 dereferenceable(865) %1) #4 {
  %3 = alloca ptr, align 8
  %4 = alloca ptr, align 8
  %5 = alloca %"class.std::allocator.2", align 1
  %6 = alloca %"class.std::__cxx11::basic_stringstream", align 8
  %7 = alloca %"struct.std::_Setprecision", align 4
  %8 = alloca %"class.std::__cxx11::basic_string", align 8
  %9 = alloca %"struct.std::_Setprecision", align 4
  %10 = alloca %"struct.std::_Setw", align 4
  %11 = alloca i32, align 4
  store ptr %0, ptr %3, align 8
  store ptr %1, ptr %4, align 8
  %12 = load ptr, ptr %4, align 8
  %13 = call noundef i64 @_ZNK9Stockfish8Position8checkersEv(ptr noundef nonnull align 8 dereferenceable(865) %12)
  %14 = icmp ne i64 %13, 0
  br i1 %14, label %15, label %16

15:                                               ; preds = %2
  call void @_ZNSaIcEC1Ev(ptr noundef nonnull align 1 dereferenceable(1) %5) #3
  call void @_ZNSt7__cxx1112basic_stringIcSt11char_traitsIcESaIcEEC2IS3_EEPKcRKS3_(ptr noundef nonnull align 8 dereferenceable(32) %0, ptr noundef @.str.10, ptr noundef nonnull align 1 dereferenceable(1) %5)
  call void @_ZNSaIcED1Ev(ptr noundef nonnull align 1 dereferenceable(1) %5) #3
  br label %89

16:                                               ; preds = %2
  call void @_ZNSt7__cxx1118basic_stringstreamIcSt11char_traitsIcESaIcEEC1Ev(ptr noundef nonnull align 8 dereferenceable(128) %6)
  %17 = getelementptr inbounds i8, ptr %6, i64 16
  %18 = call noundef nonnull align 8 dereferenceable(8) ptr @_ZNSolsEPFRSt8ios_baseS0_E(ptr noundef nonnull align 8 dereferenceable(8) %17, ptr noundef @_ZSt9showpointRSt8ios_base)
  %19 = call noundef nonnull align 8 dereferenceable(8) ptr @_ZNSolsEPFRSt8ios_baseS0_E(ptr noundef nonnull align 8 dereferenceable(8) %18, ptr noundef @_ZSt9noshowposRSt8ios_base)
  %20 = call noundef nonnull align 8 dereferenceable(8) ptr @_ZNSolsEPFRSt8ios_baseS0_E(ptr noundef nonnull align 8 dereferenceable(8) %19, ptr noundef @_ZSt5fixedRSt8ios_base)
  %21 = call i32 @_ZSt12setprecisioni(i32 noundef 2)
  %22 = getelementptr inbounds %"struct.std::_Setprecision", ptr %7, i32 0, i32 0
  store i32 %21, ptr %22, align 4
  %23 = getelementptr inbounds %"struct.std::_Setprecision", ptr %7, i32 0, i32 0
  %24 = load i32, ptr %23, align 4
  %25 = call noundef nonnull align 8 dereferenceable(8) ptr @_ZStlsIcSt11char_traitsIcEERSt13basic_ostreamIT_T0_ES6_St13_Setprecision(ptr noundef nonnull align 8 dereferenceable(8) %20, i32 %24)
  %26 = getelementptr inbounds i8, ptr %6, i64 16
  %27 = call noundef nonnull align 8 dereferenceable(8) ptr @_ZStlsISt11char_traitsIcEERSt13basic_ostreamIcT_ES5_c(ptr noundef nonnull align 8 dereferenceable(8) %26, i8 noundef signext 10)
  %28 = load ptr, ptr %4, align 8
  call void @_ZN9Stockfish4Eval4NNUE5traceB5cxx11ERNS_8PositionE(ptr dead_on_unwind writable sret(%"class.std::__cxx11::basic_string") align 8 %8, ptr noundef nonnull align 8 dereferenceable(865) %28)
  %29 = call noundef nonnull align 8 dereferenceable(8) ptr @_ZStlsIcSt11char_traitsIcESaIcEERSt13basic_ostreamIT_T0_ES7_RKNSt7__cxx1112basic_stringIS4_S5_T1_EE(ptr noundef nonnull align 8 dereferenceable(8) %27, ptr noundef nonnull align 8 dereferenceable(32) %8)
  %30 = call noundef nonnull align 8 dereferenceable(8) ptr @_ZStlsISt11char_traitsIcEERSt13basic_ostreamIcT_ES5_c(ptr noundef nonnull align 8 dereferenceable(8) %29, i8 noundef signext 10)
  call void @_ZNSt7__cxx1112basic_stringIcSt11char_traitsIcESaIcEED1Ev(ptr noundef nonnull align 8 dereferenceable(32) %8) #3
  %31 = getelementptr inbounds i8, ptr %6, i64 16
  %32 = call noundef nonnull align 8 dereferenceable(8) ptr @_ZNSolsEPFRSt8ios_baseS0_E(ptr noundef nonnull align 8 dereferenceable(8) %31, ptr noundef @_ZSt9showpointRSt8ios_base)
  %33 = call noundef nonnull align 8 dereferenceable(8) ptr @_ZNSolsEPFRSt8ios_baseS0_E(ptr noundef nonnull align 8 dereferenceable(8) %32, ptr noundef @_ZSt7showposRSt8ios_base)
  %34 = call noundef nonnull align 8 dereferenceable(8) ptr @_ZNSolsEPFRSt8ios_baseS0_E(ptr noundef nonnull align 8 dereferenceable(8) %33, ptr noundef @_ZSt5fixedRSt8ios_base)
  %35 = call i32 @_ZSt12setprecisioni(i32 noundef 2)
  %36 = getelementptr inbounds %"struct.std::_Setprecision", ptr %9, i32 0, i32 0
  store i32 %35, ptr %36, align 4
  %37 = getelementptr inbounds %"struct.std::_Setprecision", ptr %9, i32 0, i32 0
  %38 = load i32, ptr %37, align 4
  %39 = call noundef nonnull align 8 dereferenceable(8) ptr @_ZStlsIcSt11char_traitsIcEERSt13basic_ostreamIT_T0_ES6_St13_Setprecision(ptr noundef nonnull align 8 dereferenceable(8) %34, i32 %38)
  %40 = call i32 @_ZSt4setwi(i32 noundef 15)
  %41 = getelementptr inbounds %"struct.std::_Setw", ptr %10, i32 0, i32 0
  store i32 %40, ptr %41, align 4
  %42 = getelementptr inbounds %"struct.std::_Setw", ptr %10, i32 0, i32 0
  %43 = load i32, ptr %42, align 4
  %44 = call noundef nonnull align 8 dereferenceable(8) ptr @_ZStlsIcSt11char_traitsIcEERSt13basic_ostreamIT_T0_ES6_St5_Setw(ptr noundef nonnull align 8 dereferenceable(8) %39, i32 %43)
  %45 = load ptr, ptr %4, align 8
  %46 = call noundef i32 @_ZN9Stockfish4Eval4NNUE8evaluateILNS1_7NetSizeE0EEEiRKNS_8PositionEbPib(ptr noundef nonnull align 8 dereferenceable(865) %45, i1 noundef zeroext false, ptr noundef null, i1 noundef zeroext false)
  store i32 %46, ptr %11, align 4
  %47 = load ptr, ptr %4, align 8
  %48 = call noundef i32 @_ZNK9Stockfish8Position12side_to_moveEv(ptr noundef nonnull align 8 dereferenceable(865) %47)
  %49 = icmp eq i32 %48, 0
  br i1 %49, label %50, label %52

50:                                               ; preds = %16
  %51 = load i32, ptr %11, align 4
  br label %55

52:                                               ; preds = %16
  %53 = load i32, ptr %11, align 4
  %54 = sub nsw i32 0, %53
  br label %55

55:                                               ; preds = %52, %50
  %56 = phi i32 [ %51, %50 ], [ %54, %52 ]
  store i32 %56, ptr %11, align 4
  %57 = getelementptr inbounds i8, ptr %6, i64 16
  %58 = call noundef nonnull align 8 dereferenceable(8) ptr @_ZStlsISt11char_traitsIcEERSt13basic_ostreamIcT_ES5_PKc(ptr noundef nonnull align 8 dereferenceable(8) %57, ptr noundef @.str.11)
  %59 = load i32, ptr %11, align 4
  %60 = call noundef i32 @_ZN9Stockfish3UCI5to_cpEi(i32 noundef %59)
  %61 = sitofp i32 %60 to double
  %62 = fmul double 1.000000e-02, %61
  %63 = call noundef nonnull align 8 dereferenceable(8) ptr @_ZNSolsEd(ptr noundef nonnull align 8 dereferenceable(8) %58, double noundef %62)
  %64 = call noundef nonnull align 8 dereferenceable(8) ptr @_ZStlsISt11char_traitsIcEERSt13basic_ostreamIcT_ES5_PKc(ptr noundef nonnull align 8 dereferenceable(8) %63, ptr noundef @.str.12)
  %65 = load ptr, ptr %4, align 8
  %66 = call noundef i32 @_ZN9Stockfish4Eval8evaluateERKNS_8PositionEi(ptr noundef nonnull align 8 dereferenceable(865) %65, i32 noundef 0)
  store i32 %66, ptr %11, align 4
  %67 = load ptr, ptr %4, align 8
  %68 = call noundef i32 @_ZNK9Stockfish8Position12side_to_moveEv(ptr noundef nonnull align 8 dereferenceable(865) %67)
  %69 = icmp eq i32 %68, 0
  br i1 %69, label %70, label %72

70:                                               ; preds = %55
  %71 = load i32, ptr %11, align 4
  br label %75

72:                                               ; preds = %55
  %73 = load i32, ptr %11, align 4
  %74 = sub nsw i32 0, %73
  br label %75

75:                                               ; preds = %72, %70
  %76 = phi i32 [ %71, %70 ], [ %74, %72 ]
  store i32 %76, ptr %11, align 4
  %77 = getelementptr inbounds i8, ptr %6, i64 16
  %78 = call noundef nonnull align 8 dereferenceable(8) ptr @_ZStlsISt11char_traitsIcEERSt13basic_ostreamIcT_ES5_PKc(ptr noundef nonnull align 8 dereferenceable(8) %77, ptr noundef @.str.13)
  %79 = load i32, ptr %11, align 4
  %80 = call noundef i32 @_ZN9Stockfish3UCI5to_cpEi(i32 noundef %79)
  %81 = sitofp i32 %80 to double
  %82 = fmul double 1.000000e-02, %81
  %83 = call noundef nonnull align 8 dereferenceable(8) ptr @_ZNSolsEd(ptr noundef nonnull align 8 dereferenceable(8) %78, double noundef %82)
  %84 = call noundef nonnull align 8 dereferenceable(8) ptr @_ZStlsISt11char_traitsIcEERSt13basic_ostreamIcT_ES5_PKc(ptr noundef nonnull align 8 dereferenceable(8) %83, ptr noundef @.str.14)
  %85 = getelementptr inbounds i8, ptr %6, i64 16
  %86 = call noundef nonnull align 8 dereferenceable(8) ptr @_ZStlsISt11char_traitsIcEERSt13basic_ostreamIcT_ES5_PKc(ptr noundef nonnull align 8 dereferenceable(8) %85, ptr noundef @.str.15)
  %87 = getelementptr inbounds i8, ptr %6, i64 16
  %88 = call noundef nonnull align 8 dereferenceable(8) ptr @_ZStlsISt11char_traitsIcEERSt13basic_ostreamIcT_ES5_PKc(ptr noundef nonnull align 8 dereferenceable(8) %87, ptr noundef @.str.16)
  call void @_ZNKSt7__cxx1118basic_stringstreamIcSt11char_traitsIcESaIcEE3strEv(ptr dead_on_unwind writable sret(%"class.std::__cxx11::basic_string") align 8 %0, ptr noundef nonnull align 8 dereferenceable(128) %6)
  call void @_ZNSt7__cxx1118basic_stringstreamIcSt11char_traitsIcESaIcEED1Ev(ptr noundef nonnull align 8 dereferenceable(128) %6) #3
  br label %89

89:                                               ; preds = %75, %15
  ret void
}