; Function Attrs: mustprogress nounwind uwtable
define dso_local void @_ZN9Stockfish4Eval5traceB5cxx11ERNS_8PositionE(ptr dead_on_unwind noalias writable sret(%"class.std::__cxx11::basic_string") align 8 %0, ptr noundef nonnull align 8 dereferenceable(865) %1) local_unnamed_addr #3 {
  %3 = alloca %"class.std::allocator.2", align 1
  %4 = alloca %"class.std::__cxx11::basic_stringstream", align 8
  %5 = alloca %"class.std::__cxx11::basic_string", align 8
  %6 = getelementptr inbounds i8, ptr %1, i64 848
  %7 = load ptr, ptr %6, align 8
  %8 = getelementptr inbounds i8, ptr %7, i64 48
  %9 = load i64, ptr %8, align 16
  %.not = icmp eq i64 %9, 0
  br i1 %.not, label %12, label %10

10:                                               ; preds = %2
  call void @_ZNSaIcEC1Ev(ptr noundef nonnull align 1 dereferenceable(1) %3) #17
  %11 = call noundef ptr @_ZNSt7__cxx1112basic_stringIcSt11char_traitsIcESaIcEE13_M_local_dataEv(ptr noundef nonnull align 8 dereferenceable(32) %0) #17
  call void @_ZNSt7__cxx1112basic_stringIcSt11char_traitsIcESaIcEE12_Alloc_hiderC1EPcRKS3_(ptr noundef nonnull align 8 dereferenceable(8) %0, ptr noundef %11, ptr noundef nonnull align 1 dereferenceable(1) %3) #17
  call void @_ZNSt7__cxx1112basic_stringIcSt11char_traitsIcESaIcEE12_M_constructIPKcEEvT_S8_St20forward_iterator_tag(ptr noundef nonnull align 8 dereferenceable(32) %0, ptr noundef nonnull @.str.10, ptr noundef nonnull getelementptr inbounds ([34 x i8], ptr @.str.10, i64 0, i64 33))
  call void @_ZNSaIcED1Ev(ptr noundef nonnull align 1 dereferenceable(1) %3) #17
  br label %51

12:                                               ; preds = %2
  call void @_ZNSt7__cxx1118basic_stringstreamIcSt11char_traitsIcESaIcEEC1Ev(ptr noundef nonnull align 8 dereferenceable(128) %4) #17
  %13 = getelementptr inbounds i8, ptr %4, i64 16
  %14 = call noundef nonnull align 8 dereferenceable(8) ptr @_ZNSolsEPFRSt8ios_baseS0_E(ptr noundef nonnull align 8 dereferenceable(8) %13, ptr noundef nonnull @_ZSt9showpointRSt8ios_base) #17
  %15 = call noundef nonnull align 8 dereferenceable(8) ptr @_ZNSolsEPFRSt8ios_baseS0_E(ptr noundef nonnull align 8 dereferenceable(8) %14, ptr noundef nonnull @_ZSt9noshowposRSt8ios_base) #17
  %16 = call noundef nonnull align 8 dereferenceable(8) ptr @_ZNSolsEPFRSt8ios_baseS0_E(ptr noundef nonnull align 8 dereferenceable(8) %15, ptr noundef nonnull @_ZSt5fixedRSt8ios_base) #17
  %17 = call noundef nonnull align 8 dereferenceable(8) ptr @_ZStlsIcSt11char_traitsIcEERSt13basic_ostreamIT_T0_ES6_St13_Setprecision(ptr noundef nonnull align 8 dereferenceable(8) %16, i32 2) #17
  %18 = call noundef nonnull align 8 dereferenceable(8) ptr @_ZStlsISt11char_traitsIcEERSt13basic_ostreamIcT_ES5_c(ptr noundef nonnull align 8 dereferenceable(8) %13, i8 noundef signext 10) #17
  call void @_ZN9Stockfish4Eval4NNUE5traceB5cxx11ERNS_8PositionE(ptr dead_on_unwind nonnull writable sret(%"class.std::__cxx11::basic_string") align 8 %5, ptr noundef nonnull align 8 dereferenceable(865) %1) #17
  %19 = call noundef nonnull align 8 dereferenceable(8) ptr @_ZStlsIcSt11char_traitsIcESaIcEERSt13basic_ostreamIT_T0_ES7_RKNSt7__cxx1112basic_stringIS4_S5_T1_EE(ptr noundef nonnull align 8 dereferenceable(8) %18, ptr noundef nonnull align 8 dereferenceable(32) %5) #17
  %20 = call noundef nonnull align 8 dereferenceable(8) ptr @_ZStlsISt11char_traitsIcEERSt13basic_ostreamIcT_ES5_c(ptr noundef nonnull align 8 dereferenceable(8) %19, i8 noundef signext 10) #17
  call void @_ZNSt7__cxx1112basic_stringIcSt11char_traitsIcESaIcEED1Ev(ptr noundef nonnull align 8 dereferenceable(32) %5) #17
  %21 = call noundef nonnull align 8 dereferenceable(8) ptr @_ZNSolsEPFRSt8ios_baseS0_E(ptr noundef nonnull align 8 dereferenceable(8) %13, ptr noundef nonnull @_ZSt9showpointRSt8ios_base) #17
  %22 = call noundef nonnull align 8 dereferenceable(8) ptr @_ZNSolsEPFRSt8ios_baseS0_E(ptr noundef nonnull align 8 dereferenceable(8) %21, ptr noundef nonnull @_ZSt7showposRSt8ios_base) #17
  %23 = call noundef nonnull align 8 dereferenceable(8) ptr @_ZNSolsEPFRSt8ios_baseS0_E(ptr noundef nonnull align 8 dereferenceable(8) %22, ptr noundef nonnull @_ZSt5fixedRSt8ios_base) #17
  %24 = call noundef nonnull align 8 dereferenceable(8) ptr @_ZStlsIcSt11char_traitsIcEERSt13basic_ostreamIT_T0_ES6_St13_Setprecision(ptr noundef nonnull align 8 dereferenceable(8) %23, i32 2) #17
  %25 = call noundef nonnull align 8 dereferenceable(8) ptr @_ZStlsIcSt11char_traitsIcEERSt13basic_ostreamIT_T0_ES6_St5_Setw(ptr noundef nonnull align 8 dereferenceable(8) %24, i32 15) #17
  %26 = call noundef i32 @_ZN9Stockfish4Eval4NNUE8evaluateILNS1_7NetSizeE0EEEiRKNS_8PositionEbPib(ptr noundef nonnull align 8 dereferenceable(865) %1, i1 noundef zeroext false, ptr noundef null, i1 noundef zeroext false) #17
  %27 = getelementptr inbounds i8, ptr %1, i64 860
  %28 = load i32, ptr %27, align 4
  %29 = icmp eq i32 %28, 0
  %30 = sub nsw i32 0, %26
  %31 = select i1 %29, i32 %26, i32 %30
  %32 = call noundef nonnull align 8 dereferenceable(8) ptr @_ZStlsISt11char_traitsIcEERSt13basic_ostreamIcT_ES5_PKc(ptr noundef nonnull align 8 dereferenceable(8) %13, ptr noundef nonnull @.str.11) #17
  %33 = call noundef i32 @_ZN9Stockfish3UCI5to_cpEi(i32 noundef %31) #17
  %34 = sitofp i32 %33 to double
  %35 = fmul double %34, 1.000000e-02
  %36 = call noundef nonnull align 8 dereferenceable(8) ptr @_ZNSolsEd(ptr noundef nonnull align 8 dereferenceable(8) %32, double noundef %35) #17
  %37 = call noundef nonnull align 8 dereferenceable(8) ptr @_ZStlsISt11char_traitsIcEERSt13basic_ostreamIcT_ES5_PKc(ptr noundef nonnull align 8 dereferenceable(8) %36, ptr noundef nonnull @.str.12) #17
  %38 = call noundef i32 @_ZN9Stockfish4Eval8evaluateERKNS_8PositionEi(ptr noundef nonnull align 8 dereferenceable(865) %1, i32 noundef 0)
  %39 = load i32, ptr %27, align 4
  %40 = icmp eq i32 %39, 0
  %41 = sub nsw i32 0, %38
  %42 = select i1 %40, i32 %38, i32 %41
  %43 = call noundef nonnull align 8 dereferenceable(8) ptr @_ZStlsISt11char_traitsIcEERSt13basic_ostreamIcT_ES5_PKc(ptr noundef nonnull align 8 dereferenceable(8) %13, ptr noundef nonnull @.str.13) #17
  %44 = call noundef i32 @_ZN9Stockfish3UCI5to_cpEi(i32 noundef %42) #17
  %45 = sitofp i32 %44 to double
  %46 = fmul double %45, 1.000000e-02
  %47 = call noundef nonnull align 8 dereferenceable(8) ptr @_ZNSolsEd(ptr noundef nonnull align 8 dereferenceable(8) %43, double noundef %46) #17
  %48 = call noundef nonnull align 8 dereferenceable(8) ptr @_ZStlsISt11char_traitsIcEERSt13basic_ostreamIcT_ES5_PKc(ptr noundef nonnull align 8 dereferenceable(8) %47, ptr noundef nonnull @.str.14) #17
  %49 = call noundef nonnull align 8 dereferenceable(8) ptr @_ZStlsISt11char_traitsIcEERSt13basic_ostreamIcT_ES5_PKc(ptr noundef nonnull align 8 dereferenceable(8) %13, ptr noundef nonnull @.str.15) #17
  %50 = call noundef nonnull align 8 dereferenceable(8) ptr @_ZStlsISt11char_traitsIcEERSt13basic_ostreamIcT_ES5_PKc(ptr noundef nonnull align 8 dereferenceable(8) %13, ptr noundef nonnull @.str.16) #17
  call void @_ZNKSt7__cxx1118basic_stringstreamIcSt11char_traitsIcESaIcEE3strEv(ptr dead_on_unwind writable sret(%"class.std::__cxx11::basic_string") align 8 %0, ptr noundef nonnull align 8 dereferenceable(128) %4) #17
  call void @_ZNSt7__cxx1118basic_stringstreamIcSt11char_traitsIcESaIcEED1Ev(ptr noundef nonnull align 8 dereferenceable(128) %4) #17
  br label %51

51:                                               ; preds = %12, %10
  ret void
}